(dp0
S'tests'
p1
(dp2
S"tests.unit.test_isolators.having The following current modules state: {'8976c2e0e7449a80c6380c946a7a41': <object object at 0x7f04ca8e2150>, '212c6aa145759aa3c77c1b82295190': <object object at 0x7f04ca8e2180>, 'bd53804c1ff4c091c2b9481740e034': <object object at 0x7f04ca8e2160>, '5561c4841197b914766932a84e3183': <object object at 0x7f04ca8e2140>}.test 0000: should call round with 100.0"
p3
I93
sS"tests.functional.test_isolators.having The following current modules state: {'fcd835d69c44c15a1a74ec18831a87': <object object at 0x7f04ca8e2130>, 'e01a67e24aa7feb9e9e5503dd13f61': <object object at 0x7f04ca8e2140>}.test 0000: should have the isolation level of 100.0%"
p4
I13
sS"tests.functional.test_isolators.having The following current modules state: {'a1a7d9076a7ca514dd24a53bcba2d6': <object object at 0x7f04ca8e2170>}.test 0000: should have the isolation level of 100.0%"
p5
I43
sS"tests.functional.test_isolators.having The following current modules state: {'b4371f002baae753a7cb0f5fc219a9': <object object at 0x7f04ca8e2160>}.test 0000: should have the isolation level of 100.0%"
p6
I27
sS'tests.unit.test_registry.A Modules Registry.test 0003: should have the same registered state when registering only once'
p7
I125
sS"tests.unit.test_isolators.having The following current modules state: {'7a615c0eb3428887337ae94a1dd840': <testsuite.testdoubles.TestDouble object at 0x26260d0>}.test 0000: should call round with 0.0"
p8
I87
sS"tests.functional.test_isolators.having The following current modules state: {'2fb09198aa1d6b6895b97f1f66288c': <object object at 0x7f04ca8e2180>}.test 0000: should have the isolation level of 100.0%"
p9
I51
sS"tests.functional.test_isolators.having The following current modules state: {'b4371f002baae753a7cb0f5fc219a9': <object object at 0x7f04ca8e2160>, 'a1a7d9076a7ca514dd24a53bcba2d6': <object object at 0x7f04ca8e2170>, 'd79965e5566d71e8b77d38f40b8075': <object object at 0x7f04ca8e21a0>}.test 0000: should have the isolation level of 100.0%"
p10
I35
sS"tests.unit.test_layers.A Integration Tests Layer.test 0000: should have 'Integration Tests Layer:' as the description"
p11
I120
sS"tests.unit.test_isolators.having The following current modules state: {'7a0d37b5827f6b4921e7bb191b33c0': <object object at 0x7f04ca8e2170>, '8976c2e0e7449a80c6380c946a7a41': <object object at 0x7f04ca8e2150>}.test 0000: should call round with 100.0"
p12
I109
sS"tests.functional.test_isolators.having The following current modules state: {'b4371f002baae753a7cb0f5fc219a9': <object object at 0x7f04ca8e2160>, 'd79965e5566d71e8b77d38f40b8075': <object object at 0x7f04ca8e21a0>}.test 0000: should have the isolation level of 100.0%"
p13
I42
sS"tests.functional.test_isolators.having The following current modules state: {'b4371f002baae753a7cb0f5fc219a9': <object object at 0x7f04ca8e2160>, '2fb09198aa1d6b6895b97f1f66288c': <object object at 0x7f04ca8e2180>, 'a1a7d9076a7ca514dd24a53bcba2d6': <object object at 0x7f04ca8e2170>}.test 0000: should have the isolation level of 100.0%"
p14
I29
sS"tests.functional.test_isolators.having The following current modules state: {'fcd835d69c44c15a1a74ec18831a87': <object object at 0x7f04ca8e2130>, '89182b9a0ab1e35de381d8d01910ab': <object object at 0x7f04ca8e2150>}.test 0000: should have the isolation level of 100.0%"
p15
I17
sS"tests.unit.test_isolators.having The following current modules state: {'7a0d37b5827f6b4921e7bb191b33c0': <object object at 0x7f04ca8e2170>, '8976c2e0e7449a80c6380c946a7a41': <object object at 0x7f04ca8e2150>, '212c6aa145759aa3c77c1b82295190': <object object at 0x7f04ca8e2180>, '5561c4841197b914766932a84e3183': <object object at 0x7f04ca8e2140>}.test 0000: should call round with 100.0"
p16
I95
sS"tests.unit.test_isolators.having The following current modules state: {'1705526b3a41daabb4754671563f18': <testsuite.testdoubles.TestDouble object at 0x2622fd0>, '88d8c5344d568c24f11db3ee5c11d5': <object object at 0x7f04ca8e2110>, 'cf74e8f45cd6562a0b5086f8223fd4': <testsuite.testdoubles.TestDouble object at 0x2626050>}.test 0000: should call round with 33.33"
p17
I68
sS"tests.unit.test_isolators.having The following current modules state: {'88d8c5344d568c24f11db3ee5c11d5': <object object at 0x7f04ca8e2110>}.test 0000: should call round with 100.0"
p18
I70
sS"tests.unit.test_isolators.having The following current modules state: {'7a0d37b5827f6b4921e7bb191b33c0': <object object at 0x7f04ca8e2170>, '8976c2e0e7449a80c6380c946a7a41': <object object at 0x7f04ca8e2150>, 'bd53804c1ff4c091c2b9481740e034': <object object at 0x7f04ca8e2160>}.test 0000: should call round with 100.0"
p19
I106
sS"tests.functional.test_isolators.having The following current modules state: {'2fb09198aa1d6b6895b97f1f66288c': <object object at 0x7f04ca8e2180>, 'a1a7d9076a7ca514dd24a53bcba2d6': <object object at 0x7f04ca8e2170>}.test 0000: should have the isolation level of 100.0%"
p20
I44
sS"tests.unit.test_isolators.having The following current modules state: {'7a0d37b5827f6b4921e7bb191b33c0': <object object at 0x7f04ca8e2170>, '212c6aa145759aa3c77c1b82295190': <object object at 0x7f04ca8e2180>}.test 0000: should call round with 100.0"
p21
I117
sS"tests.unit.test_isolators.having The following current modules state: {'b3c9788a3023b696ccc8dbee7f23b8': <object object at 0x7f04ca8e2130>, '7a615c0eb3428887337ae94a1dd840': <testsuite.testdoubles.TestDouble object at 0x26260d0>}.test 0000: should call round with 50.0"
p22
I84
sS"tests.functional.test_isolators.having The following current modules state: {'fcd835d69c44c15a1a74ec18831a87': <object object at 0x7f04ca8e2130>, '4424fecad39e6dc290ee25612ceabf': <testsuite.testdoubles.TestDouble object at 0x23f8450>}.test 0000: should have the isolation level of 50.0%"
p23
I19
sS"tests.unit.test_isolators.having The following current modules state: {'8976c2e0e7449a80c6380c946a7a41': <object object at 0x7f04ca8e2150>, '212c6aa145759aa3c77c1b82295190': <object object at 0x7f04ca8e2180>, '5561c4841197b914766932a84e3183': <object object at 0x7f04ca8e2140>}.test 0000: should call round with 100.0"
p24
I96
sS"tests.functional.test_isolators.having The following current modules state: {'e01a67e24aa7feb9e9e5503dd13f61': <object object at 0x7f04ca8e2140>}.test 0000: should have the isolation level of 100.0%"
p25
I20
sS"tests.unit.test_isolators.having The following current modules state: {'b3c9788a3023b696ccc8dbee7f23b8': <object object at 0x7f04ca8e2130>, '7a615c0eb3428887337ae94a1dd840': <testsuite.testdoubles.TestDouble object at 0x26260d0>, '5f78c009b0656a4a42ed33258d2f90': <object object at 0x7f04ca8e2120>}.test 0000: should call round with 66.67"
p26
I77
sS"tests.functional.test_isolators.having The following current modules state: {'73e277656ccfbd9e2912da70e8b24b': <object object at 0x7f04ca8e2110>}.test 0000: should have the isolation level of 100.0%"
p27
I9
sS'tests.unit.test_registry.A Modules Registry.test 0001: should raise a TypeError when attempting to register anything else other then a dictionary'
p28
I123
sS"tests.functional.test_isolators.having The following current modules state: {'59b1766fa7fbfaa845bfd5facbfac0': <object object at 0x7f04ca8e2190>, 'a1a7d9076a7ca514dd24a53bcba2d6': <object object at 0x7f04ca8e2170>}.test 0000: should have the isolation level of 100.0%"
p29
I48
sS"tests.unit.test_isolators.having The following current modules state: {'b3c9788a3023b696ccc8dbee7f23b8': <object object at 0x7f04ca8e2130>, 'ba222e1f148931a457820271e4adab': <testsuite.testdoubles.TestDouble object at 0x2626090>}.test 0000: should call round with 50.0"
p30
I82
sS"tests.functional.test_isolators.having The following current modules state: {'4424fecad39e6dc290ee25612ceabf': <testsuite.testdoubles.TestDouble object at 0x23f8450>, '89182b9a0ab1e35de381d8d01910ab': <object object at 0x7f04ca8e2150>}.test 0000: should have the isolation level of 50.0%"
p31
I25
sS"tests.functional.test_isolators.having The following current modules state: {'59b1766fa7fbfaa845bfd5facbfac0': <object object at 0x7f04ca8e2190>, '2fb09198aa1d6b6895b97f1f66288c': <object object at 0x7f04ca8e2180>}.test 0000: should have the isolation level of 100.0%"
p32
I52
sS"tests.functional.test_isolators.having The following current modules state: {'fcd835d69c44c15a1a74ec18831a87': <object object at 0x7f04ca8e2130>, '4424fecad39e6dc290ee25612ceabf': <testsuite.testdoubles.TestDouble object at 0x23f8450>, 'e01a67e24aa7feb9e9e5503dd13f61': <object object at 0x7f04ca8e2140>}.test 0000: should have the isolation level of 66.67%"
p33
I16
sS"tests.functional.test_isolators.having The following current modules state: {'59b1766fa7fbfaa845bfd5facbfac0': <object object at 0x7f04ca8e2190>, 'd79965e5566d71e8b77d38f40b8075': <object object at 0x7f04ca8e21a0>}.test 0000: should have the isolation level of 100.0%"
p34
I56
sS"tests.unit.test_isolators.having The following current modules state: {'8976c2e0e7449a80c6380c946a7a41': <object object at 0x7f04ca8e2150>, '5561c4841197b914766932a84e3183': <object object at 0x7f04ca8e2140>}.test 0000: should call round with 100.0"
p35
I89
sS'tests.unit.test_registry.A Modules Registry.test 0006: should have exactly zero registered states when unregistering only once'
p36
I128
sS"tests.functional.test_isolators.having The following current modules state: {'59b1766fa7fbfaa845bfd5facbfac0': <object object at 0x7f04ca8e2190>, 'a1a7d9076a7ca514dd24a53bcba2d6': <object object at 0x7f04ca8e2170>, 'd79965e5566d71e8b77d38f40b8075': <object object at 0x7f04ca8e21a0>}.test 0000: should have the isolation level of 100.0%"
p37
I49
sS"tests.unit.test_isolators.having The following current modules state: {'3ebb19933503af048d61e04d072434': <testsuite.testdoubles.TestDouble object at 0x2622f90>}.test 0000: should call round with 0.0"
p38
I62
sS"tests.functional.test_isolators.having The following current modules state: {'19201c56e5e6ee4deee6517ffa69fb': <testsuite.testdoubles.TestDouble object at 0x23edf50>}.test 0000: should have the isolation level of 0.0%"
p39
I1
sS"tests.functional.test_isolators.having The following current modules state: {'fcd835d69c44c15a1a74ec18831a87': <object object at 0x7f04ca8e2130>, '4424fecad39e6dc290ee25612ceabf': <testsuite.testdoubles.TestDouble object at 0x23f8450>, '89182b9a0ab1e35de381d8d01910ab': <object object at 0x7f04ca8e2150>, 'e01a67e24aa7feb9e9e5503dd13f61': <object object at 0x7f04ca8e2140>}.test 0000: should have the isolation level of 75.0%"
p40
I15
sS"tests.unit.test_isolators.having The following current modules state: {'212c6aa145759aa3c77c1b82295190': <object object at 0x7f04ca8e2180>, 'bd53804c1ff4c091c2b9481740e034': <object object at 0x7f04ca8e2160>}.test 0000: should call round with 100.0"
p41
I115
sS"tests.unit.test_isolators.having The following current modules state: {'7a0d37b5827f6b4921e7bb191b33c0': <object object at 0x7f04ca8e2170>, '8976c2e0e7449a80c6380c946a7a41': <object object at 0x7f04ca8e2150>, '212c6aa145759aa3c77c1b82295190': <object object at 0x7f04ca8e2180>}.test 0000: should call round with 100.0"
p42
I110
sS'tests.unit.test_isolators.A Integration Test Module Isolation Level Calculation.test 0001: should raise a TypeError when current state is not a dictionary'
p43
I59
sS"tests.functional.test_isolators.having The following current modules state: {'4424fecad39e6dc290ee25612ceabf': <testsuite.testdoubles.TestDouble object at 0x23f8450>}.test 0000: should have the isolation level of 0.0%"
p44
I26
sS"tests.unit.test_isolators.having The following current modules state: {'5f78c009b0656a4a42ed33258d2f90': <object object at 0x7f04ca8e2120>}.test 0000: should call round with 100.0"
p45
I73
sS"tests.functional.test_isolators.having The following current modules state: {'a1a7d9076a7ca514dd24a53bcba2d6': <object object at 0x7f04ca8e2170>, 'd79965e5566d71e8b77d38f40b8075': <object object at 0x7f04ca8e21a0>}.test 0000: should have the isolation level of 100.0%"
p46
I50
sS"tests.unit.test_isolators.having The following current modules state: {'b3c9788a3023b696ccc8dbee7f23b8': <object object at 0x7f04ca8e2130>, '7a615c0eb3428887337ae94a1dd840': <testsuite.testdoubles.TestDouble object at 0x26260d0>, 'ba222e1f148931a457820271e4adab': <testsuite.testdoubles.TestDouble object at 0x2626090>}.test 0000: should call round with 33.33"
p47
I83
sS"tests.functional.test_isolators.having The following current modules state: {'b4371f002baae753a7cb0f5fc219a9': <object object at 0x7f04ca8e2160>, '2fb09198aa1d6b6895b97f1f66288c': <object object at 0x7f04ca8e2180>, '59b1766fa7fbfaa845bfd5facbfac0': <object object at 0x7f04ca8e2190>}.test 0000: should have the isolation level of 100.0%"
p48
I37
sS"tests.functional.test_isolators.having The following current modules state: {'89182b9a0ab1e35de381d8d01910ab': <object object at 0x7f04ca8e2150>}.test 0000: should have the isolation level of 100.0%"
p49
I24
sS"tests.functional.test_isolators.having The following current modules state: {'59b1766fa7fbfaa845bfd5facbfac0': <object object at 0x7f04ca8e2190>}.test 0000: should have the isolation level of 100.0%"
p50
I55
sS"tests.unit.test_isolators.having The following current modules state: {'7a0d37b5827f6b4921e7bb191b33c0': <object object at 0x7f04ca8e2170>}.test 0000: should call round with 100.0"
p51
I116
sS"tests.unit.test_isolators.having The following current modules state: {'7a0d37b5827f6b4921e7bb191b33c0': <object object at 0x7f04ca8e2170>, '212c6aa145759aa3c77c1b82295190': <object object at 0x7f04ca8e2180>, '5561c4841197b914766932a84e3183': <object object at 0x7f04ca8e2140>}.test 0000: should call round with 100.0"
p52
I102
sS'tests.unit.test_registry.A Modules Registry.test 0002: should have exactly one registered state when registering only once'
p53
I124
sS"tests.functional.test_isolators.having The following current modules state: {'e04e49d10cb75408309ef2ae408e49': <object object at 0x7f04ca8e2120>, '73e277656ccfbd9e2912da70e8b24b': <object object at 0x7f04ca8e2110>, '7fe3ec63b9cad70f863fefa847e8a5': <object object at 0x7f04ca8e2100>}.test 0000: should have the isolation level of 100.0%"
p54
I7
sS"tests.functional.test_isolators.having The following current modules state: {'59b1766fa7fbfaa845bfd5facbfac0': <object object at 0x7f04ca8e2190>, '2fb09198aa1d6b6895b97f1f66288c': <object object at 0x7f04ca8e2180>, 'a1a7d9076a7ca514dd24a53bcba2d6': <object object at 0x7f04ca8e2170>, 'd79965e5566d71e8b77d38f40b8075': <object object at 0x7f04ca8e21a0>}.test 0000: should have the isolation level of 100.0%"
p55
I46
sS"tests.functional.test_isolators.having The following current modules state: {'e01a67e24aa7feb9e9e5503dd13f61': <object object at 0x7f04ca8e2140>, '4424fecad39e6dc290ee25612ceabf': <testsuite.testdoubles.TestDouble object at 0x23f8450>}.test 0000: should have the isolation level of 50.0%"
p56
I23
sS"tests.unit.test_isolators.having The following current modules state: {'8976c2e0e7449a80c6380c946a7a41': <object object at 0x7f04ca8e2150>, 'bd53804c1ff4c091c2b9481740e034': <object object at 0x7f04ca8e2160>, '5561c4841197b914766932a84e3183': <object object at 0x7f04ca8e2140>}.test 0000: should call round with 100.0"
p57
I90
sS"tests.unit.test_isolators.having The following current modules state: {'bd53804c1ff4c091c2b9481740e034': <object object at 0x7f04ca8e2160>, '5561c4841197b914766932a84e3183': <object object at 0x7f04ca8e2140>}.test 0000: should call round with 100.0"
p58
I97
sS"tests.unit.test_isolators.having The following current modules state: {'7a0d37b5827f6b4921e7bb191b33c0': <object object at 0x7f04ca8e2170>, '8976c2e0e7449a80c6380c946a7a41': <object object at 0x7f04ca8e2150>, '212c6aa145759aa3c77c1b82295190': <object object at 0x7f04ca8e2180>, 'bd53804c1ff4c091c2b9481740e034': <object object at 0x7f04ca8e2160>, '5561c4841197b914766932a84e3183': <object object at 0x7f04ca8e2140>}.test 0000: should call round with 100.0"
p59
I92
sS'tests.unit.test_isolators.A Integration Test Module Isolation Level Calculation.test 0003: should have 100% isolation level when all modules were excluded'
p60
I61
sS'tests.unit.test_registry.A Modules Registry.test 0004: should raise a NoModulesRegisteredError when unregistering from an empty modules registry'
p61
I126
sS"tests.functional.test_isolators.having The following current modules state: {'e01a67e24aa7feb9e9e5503dd13f61': <object object at 0x7f04ca8e2140>, '89182b9a0ab1e35de381d8d01910ab': <object object at 0x7f04ca8e2150>, '4424fecad39e6dc290ee25612ceabf': <testsuite.testdoubles.TestDouble object at 0x23f8450>}.test 0000: should have the isolation level of 66.67%"
p62
I22
sS"tests.functional.test_isolators.having The following current modules state: {'b4371f002baae753a7cb0f5fc219a9': <object object at 0x7f04ca8e2160>, '2fb09198aa1d6b6895b97f1f66288c': <object object at 0x7f04ca8e2180>, 'a1a7d9076a7ca514dd24a53bcba2d6': <object object at 0x7f04ca8e2170>, '59b1766fa7fbfaa845bfd5facbfac0': <object object at 0x7f04ca8e2190>}.test 0000: should have the isolation level of 100.0%"
p63
I30
sS"tests.functional.test_isolators.having The following current modules state: {'e04e49d10cb75408309ef2ae408e49': <object object at 0x7f04ca8e2120>, '7fe3ec63b9cad70f863fefa847e8a5': <object object at 0x7f04ca8e2100>}.test 0000: should have the isolation level of 100.0%"
p64
I8
sS"tests.unit.test_isolators.having The following current modules state: {'7a0d37b5827f6b4921e7bb191b33c0': <object object at 0x7f04ca8e2170>, '8976c2e0e7449a80c6380c946a7a41': <object object at 0x7f04ca8e2150>, 'bd53804c1ff4c091c2b9481740e034': <object object at 0x7f04ca8e2160>, '5561c4841197b914766932a84e3183': <object object at 0x7f04ca8e2140>}.test 0000: should call round with 100.0"
p65
I91
sS"tests.unit.test_isolators.having The following current modules state: {'7a615c0eb3428887337ae94a1dd840': <testsuite.testdoubles.TestDouble object at 0x26260d0>, 'ba222e1f148931a457820271e4adab': <testsuite.testdoubles.TestDouble object at 0x2626090>}.test 0000: should call round with 0.0"
p66
I86
sS"tests.unit.test_isolators.having The following current modules state: {'7a0d37b5827f6b4921e7bb191b33c0': <object object at 0x7f04ca8e2170>, '212c6aa145759aa3c77c1b82295190': <object object at 0x7f04ca8e2180>, 'bd53804c1ff4c091c2b9481740e034': <object object at 0x7f04ca8e2160>, '5561c4841197b914766932a84e3183': <object object at 0x7f04ca8e2140>}.test 0000: should call round with 100.0"
p67
I99
sS"tests.unit.test_isolators.having The following current modules state: {'8976c2e0e7449a80c6380c946a7a41': <object object at 0x7f04ca8e2150>, '212c6aa145759aa3c77c1b82295190': <object object at 0x7f04ca8e2180>}.test 0000: should call round with 100.0"
p68
I111
sS"tests.functional.test_isolators.having The following current modules state: {'4dab9a0f381f932f36be3313110384': <object object at 0x7f04ca8e20f0>, '09756ef84db5d95bc5320f5a2c6802': <testsuite.testdoubles.TestDouble object at 0x23edfd0>}.test 0000: should have the isolation level of 50.0%"
p69
I3
sS"tests.functional.test_isolators.having The following current modules state: {'e04e49d10cb75408309ef2ae408e49': <object object at 0x7f04ca8e2120>, '73e277656ccfbd9e2912da70e8b24b': <object object at 0x7f04ca8e2110>}.test 0000: should have the isolation level of 100.0%"
p70
I10
sS"tests.unit.test_isolators.having The following current modules state: {'7a0d37b5827f6b4921e7bb191b33c0': <object object at 0x7f04ca8e2170>, '8976c2e0e7449a80c6380c946a7a41': <object object at 0x7f04ca8e2150>, '5561c4841197b914766932a84e3183': <object object at 0x7f04ca8e2140>}.test 0000: should call round with 100.0"
p71
I94
sS"tests.unit.test_isolators.having The following current modules state: {'1705526b3a41daabb4754671563f18': <testsuite.testdoubles.TestDouble object at 0x2622fd0>}.test 0000: should call round with 0.0"
p72
I66
sS"tests.functional.test_isolators.having The following current modules state: {'59b1766fa7fbfaa845bfd5facbfac0': <object object at 0x7f04ca8e2190>, '2fb09198aa1d6b6895b97f1f66288c': <object object at 0x7f04ca8e2180>, 'a1a7d9076a7ca514dd24a53bcba2d6': <object object at 0x7f04ca8e2170>}.test 0000: should have the isolation level of 100.0%"
p73
I45
sS"tests.unit.test_isolators.having The following current modules state: {'7a615c0eb3428887337ae94a1dd840': <testsuite.testdoubles.TestDouble object at 0x26260d0>, '5f78c009b0656a4a42ed33258d2f90': <object object at 0x7f04ca8e2120>}.test 0000: should call round with 50.0"
p74
I80
sS"tests.functional.test_isolators.having The following current modules state: {'b4371f002baae753a7cb0f5fc219a9': <object object at 0x7f04ca8e2160>, 'd79965e5566d71e8b77d38f40b8075': <object object at 0x7f04ca8e21a0>, '2fb09198aa1d6b6895b97f1f66288c': <object object at 0x7f04ca8e2180>, 'a1a7d9076a7ca514dd24a53bcba2d6': <object object at 0x7f04ca8e2170>, '59b1766fa7fbfaa845bfd5facbfac0': <object object at 0x7f04ca8e2190>}.test 0000: should have the isolation level of 100.0%"
p75
I31
sS"tests.unit.test_isolators.having The following current modules state: {'cf74e8f45cd6562a0b5086f8223fd4': <testsuite.testdoubles.TestDouble object at 0x2626050>}.test 0000: should call round with 0.0"
p76
I72
sS'tests.unit.test_registry.A Modules Registry.test 0007: should register the current state of the system modules'
p77
I129
sS"tests.unit.test_isolators.having The following current modules state: {'5561c4841197b914766932a84e3183': <object object at 0x7f04ca8e2140>}.test 0000: should call round with 100.0"
p78
I88
sS"tests.functional.test_isolators.having The following current modules state: {'59b1766fa7fbfaa845bfd5facbfac0': <object object at 0x7f04ca8e2190>, '2fb09198aa1d6b6895b97f1f66288c': <object object at 0x7f04ca8e2180>, 'd79965e5566d71e8b77d38f40b8075': <object object at 0x7f04ca8e21a0>}.test 0000: should have the isolation level of 100.0%"
p79
I53
sS"tests.unit.test_isolators.having The following current modules state: {'8976c2e0e7449a80c6380c946a7a41': <object object at 0x7f04ca8e2150>}.test 0000: should call round with 100.0"
p80
I104
sS"tests.functional.test_isolators.having The following current modules state: {'b4371f002baae753a7cb0f5fc219a9': <object object at 0x7f04ca8e2160>, 'a1a7d9076a7ca514dd24a53bcba2d6': <object object at 0x7f04ca8e2170>}.test 0000: should have the isolation level of 100.0%"
p81
I28
sS"tests.functional.test_isolators.having The following current modules state: {'b4371f002baae753a7cb0f5fc219a9': <object object at 0x7f04ca8e2160>, '2fb09198aa1d6b6895b97f1f66288c': <object object at 0x7f04ca8e2180>}.test 0000: should have the isolation level of 100.0%"
p82
I36
sS"tests.unit.test_layers.A Functional Tests Layer.test 0000: should have 'Functional Tests Layer:' as the description"
p83
I121
sS"tests.unit.test_isolators.having The following current modules state: {'7a0d37b5827f6b4921e7bb191b33c0': <object object at 0x7f04ca8e2170>, '212c6aa145759aa3c77c1b82295190': <object object at 0x7f04ca8e2180>, 'bd53804c1ff4c091c2b9481740e034': <object object at 0x7f04ca8e2160>}.test 0000: should call round with 100.0"
p84
I114
sS"tests.functional.test_isolators.having The following current modules state: {'b4371f002baae753a7cb0f5fc219a9': <object object at 0x7f04ca8e2160>, '2fb09198aa1d6b6895b97f1f66288c': <object object at 0x7f04ca8e2180>, '59b1766fa7fbfaa845bfd5facbfac0': <object object at 0x7f04ca8e2190>, 'd79965e5566d71e8b77d38f40b8075': <object object at 0x7f04ca8e21a0>}.test 0000: should have the isolation level of 100.0%"
p85
I38
sS"tests.unit.test_isolators.having The following current modules state: {'8976c2e0e7449a80c6380c946a7a41': <object object at 0x7f04ca8e2150>, 'bd53804c1ff4c091c2b9481740e034': <object object at 0x7f04ca8e2160>}.test 0000: should call round with 100.0"
p86
I105
sS'tests.unit.test_registry.A Modules Registry.test 0005: should unregister when a state was registered before'
p87
I127
sS"tests.functional.test_isolators.having The following current modules state: {'2fb09198aa1d6b6895b97f1f66288c': <object object at 0x7f04ca8e2180>, 'd79965e5566d71e8b77d38f40b8075': <object object at 0x7f04ca8e21a0>}.test 0000: should have the isolation level of 100.0%"
p88
I54
sS"tests.unit.test_isolators.having The following current modules state: {'ba222e1f148931a457820271e4adab': <testsuite.testdoubles.TestDouble object at 0x2626090>, '5f78c009b0656a4a42ed33258d2f90': <object object at 0x7f04ca8e2120>}.test 0000: should call round with 50.0"
p89
I78
sS"tests.unit.test_isolators.having The following current modules state: {'b3ec4db39915df9119bd516d4df236': <object object at 0x7f04ca8e2100>}.test 0000: should call round with 100.0"
p90
I65
sS"tests.unit.test_isolators.having The following current modules state: {'1705526b3a41daabb4754671563f18': <testsuite.testdoubles.TestDouble object at 0x2622fd0>, 'cf74e8f45cd6562a0b5086f8223fd4': <testsuite.testdoubles.TestDouble object at 0x2626050>}.test 0000: should call round with 0.0"
p91
I69
sS'tests.unit.test_isolators.A Integration Test Module Isolation Level Calculation.test 0000: should raise a NoModulesRegisteredError when fetching isolation level and no modules are registered'
p92
I58
sS"tests.unit.test_isolators.having The following current modules state: {'7a0d37b5827f6b4921e7bb191b33c0': <object object at 0x7f04ca8e2170>, '5561c4841197b914766932a84e3183': <object object at 0x7f04ca8e2140>}.test 0000: should call round with 100.0"
p93
I101
sS"tests.functional.test_isolators.having The following current modules state: {'b4371f002baae753a7cb0f5fc219a9': <object object at 0x7f04ca8e2160>, '59b1766fa7fbfaa845bfd5facbfac0': <object object at 0x7f04ca8e2190>}.test 0000: should have the isolation level of 100.0%"
p94
I40
sS"tests.functional.test_isolators.having The following current modules state: {'b4371f002baae753a7cb0f5fc219a9': <object object at 0x7f04ca8e2160>, '2fb09198aa1d6b6895b97f1f66288c': <object object at 0x7f04ca8e2180>, 'a1a7d9076a7ca514dd24a53bcba2d6': <object object at 0x7f04ca8e2170>, 'd79965e5566d71e8b77d38f40b8075': <object object at 0x7f04ca8e21a0>}.test 0000: should have the isolation level of 100.0%"
p95
I32
sS'tests.unit.test_registry.A Modules Registry.test 0000: should have nothing registered when initialized'
p96
I122
sS"tests.unit.test_isolators.having The following current modules state: {'b3c9788a3023b696ccc8dbee7f23b8': <object object at 0x7f04ca8e2130>}.test 0000: should call round with 100.0"
p97
I81
sS"tests.unit.test_isolators.having The following current modules state: {'ba222e1f148931a457820271e4adab': <testsuite.testdoubles.TestDouble object at 0x2626090>}.test 0000: should call round with 0.0"
p98
I85
sS"tests.unit.test_isolators.having The following current modules state: {'7a0d37b5827f6b4921e7bb191b33c0': <object object at 0x7f04ca8e2170>, 'bd53804c1ff4c091c2b9481740e034': <object object at 0x7f04ca8e2160>}.test 0000: should call round with 100.0"
p99
I113
sS"tests.unit.test_isolators.having The following current modules state: {'212c6aa145759aa3c77c1b82295190': <object object at 0x7f04ca8e2180>, 'bd53804c1ff4c091c2b9481740e034': <object object at 0x7f04ca8e2160>, '5561c4841197b914766932a84e3183': <object object at 0x7f04ca8e2140>}.test 0000: should call round with 100.0"
p100
I100
sS"tests.unit.test_isolators.having The following current modules state: {'bd53804c1ff4c091c2b9481740e034': <object object at 0x7f04ca8e2160>}.test 0000: should call round with 100.0"
p101
I112
sS"tests.functional.test_isolators.having The following current modules state: {'7fe3ec63b9cad70f863fefa847e8a5': <object object at 0x7f04ca8e2100>}.test 0000: should have the isolation level of 100.0%"
p102
I5
sS"tests.unit.test_isolators.having The following current modules state: {'1705526b3a41daabb4754671563f18': <testsuite.testdoubles.TestDouble object at 0x2622fd0>, '88d8c5344d568c24f11db3ee5c11d5': <object object at 0x7f04ca8e2110>}.test 0000: should call round with 50.0"
p103
I67
sS"tests.functional.test_isolators.having The following current modules state: {'fcd835d69c44c15a1a74ec18831a87': <object object at 0x7f04ca8e2130>, '89182b9a0ab1e35de381d8d01910ab': <object object at 0x7f04ca8e2150>, '4424fecad39e6dc290ee25612ceabf': <testsuite.testdoubles.TestDouble object at 0x23f8450>}.test 0000: should have the isolation level of 66.67%"
p104
I18
sS"tests.functional.test_isolators.having The following current modules state: {'fcd835d69c44c15a1a74ec18831a87': <object object at 0x7f04ca8e2130>, '89182b9a0ab1e35de381d8d01910ab': <object object at 0x7f04ca8e2150>, 'e01a67e24aa7feb9e9e5503dd13f61': <object object at 0x7f04ca8e2140>}.test 0000: should have the isolation level of 100.0%"
p105
I14
sS"tests.unit.test_isolators.having The following current modules state: {'8976c2e0e7449a80c6380c946a7a41': <object object at 0x7f04ca8e2150>, '212c6aa145759aa3c77c1b82295190': <object object at 0x7f04ca8e2180>, 'bd53804c1ff4c091c2b9481740e034': <object object at 0x7f04ca8e2160>}.test 0000: should call round with 100.0"
p106
I108
sS"tests.functional.test_isolators.having The following current modules state: {'2fb09198aa1d6b6895b97f1f66288c': <object object at 0x7f04ca8e2180>, 'a1a7d9076a7ca514dd24a53bcba2d6': <object object at 0x7f04ca8e2170>, 'd79965e5566d71e8b77d38f40b8075': <object object at 0x7f04ca8e21a0>}.test 0000: should have the isolation level of 100.0%"
p107
I47
sS"tests.functional.test_isolators.having The following current modules state: {'b4371f002baae753a7cb0f5fc219a9': <object object at 0x7f04ca8e2160>, 'd79965e5566d71e8b77d38f40b8075': <object object at 0x7f04ca8e21a0>, 'a1a7d9076a7ca514dd24a53bcba2d6': <object object at 0x7f04ca8e2170>, '59b1766fa7fbfaa845bfd5facbfac0': <object object at 0x7f04ca8e2190>}.test 0000: should have the isolation level of 100.0%"
p108
I34
sS"tests.functional.test_isolators.having The following current modules state: {'b4371f002baae753a7cb0f5fc219a9': <object object at 0x7f04ca8e2160>, 'a1a7d9076a7ca514dd24a53bcba2d6': <object object at 0x7f04ca8e2170>, '59b1766fa7fbfaa845bfd5facbfac0': <object object at 0x7f04ca8e2190>}.test 0000: should have the isolation level of 100.0%"
p109
I33
sS"tests.unit.test_isolators.having The following current modules state: {'7a0d37b5827f6b4921e7bb191b33c0': <object object at 0x7f04ca8e2170>, '8976c2e0e7449a80c6380c946a7a41': <object object at 0x7f04ca8e2150>, '212c6aa145759aa3c77c1b82295190': <object object at 0x7f04ca8e2180>, 'bd53804c1ff4c091c2b9481740e034': <object object at 0x7f04ca8e2160>}.test 0000: should call round with 100.0"
p110
I107
sS"tests.functional.test_isolators.having The following current modules state: {'e01a67e24aa7feb9e9e5503dd13f61': <object object at 0x7f04ca8e2140>, '89182b9a0ab1e35de381d8d01910ab': <object object at 0x7f04ca8e2150>}.test 0000: should have the isolation level of 100.0%"
p111
I21
sS"tests.functional.test_isolators.having The following current modules state: {'09756ef84db5d95bc5320f5a2c6802': <testsuite.testdoubles.TestDouble object at 0x23edfd0>}.test 0000: should have the isolation level of 0.0%"
p112
I2
sS'tests.unit.test_isolators.A Integration Test Module Isolation Level Calculation.test 0002: should have 100% isolation level when a module that was replaced with a test double was excluded'
p113
I60
sS"tests.functional.test_isolators.having The following current modules state: {'b4371f002baae753a7cb0f5fc219a9': <object object at 0x7f04ca8e2160>, '59b1766fa7fbfaa845bfd5facbfac0': <object object at 0x7f04ca8e2190>, 'd79965e5566d71e8b77d38f40b8075': <object object at 0x7f04ca8e21a0>}.test 0000: should have the isolation level of 100.0%"
p114
I41
sS"tests.unit.test_layers.A Unit Tests Layer.test 0000: should have 'Unit Tests Layer:' as the description"
p115
I119
sS"tests.unit.test_isolators.having The following current modules state: {'b3c9788a3023b696ccc8dbee7f23b8': <object object at 0x7f04ca8e2130>, '5f78c009b0656a4a42ed33258d2f90': <object object at 0x7f04ca8e2120>}.test 0000: should call round with 100.0"
p116
I74
sS"tests.functional.test_isolators.having The following current modules state: {'fcd835d69c44c15a1a74ec18831a87': <object object at 0x7f04ca8e2130>}.test 0000: should have the isolation level of 100.0%"
p117
I12
sS"tests.unit.test_isolators.having The following current modules state: {'212c6aa145759aa3c77c1b82295190': <object object at 0x7f04ca8e2180>}.test 0000: should call round with 100.0"
p118
I118
sS"tests.unit.test_isolators.having The following current modules state: {'b3c9788a3023b696ccc8dbee7f23b8': <object object at 0x7f04ca8e2130>, 'ba222e1f148931a457820271e4adab': <testsuite.testdoubles.TestDouble object at 0x2626090>, '5f78c009b0656a4a42ed33258d2f90': <object object at 0x7f04ca8e2120>}.test 0000: should call round with 66.67"
p119
I75
sS"tests.unit.test_isolators.having The following current modules state: {'55fc3850eb1b4372347156bbe64c75': <testsuite.testdoubles.TestDouble object at 0x2622f10>, 'b3ec4db39915df9119bd516d4df236': <object object at 0x7f04ca8e2100>}.test 0000: should call round with 50.0"
p120
I64
sS"tests.functional.test_isolators.having The following current modules state: {'73e277656ccfbd9e2912da70e8b24b': <object object at 0x7f04ca8e2110>, '7fe3ec63b9cad70f863fefa847e8a5': <object object at 0x7f04ca8e2100>}.test 0000: should have the isolation level of 100.0%"
p121
I6
sS"tests.unit.test_isolators.having The following current modules state: {'7a615c0eb3428887337ae94a1dd840': <testsuite.testdoubles.TestDouble object at 0x26260d0>, 'ba222e1f148931a457820271e4adab': <testsuite.testdoubles.TestDouble object at 0x2626090>, '5f78c009b0656a4a42ed33258d2f90': <object object at 0x7f04ca8e2120>}.test 0000: should call round with 33.33"
p122
I79
sS"tests.functional.test_isolators.having The following current modules state: {'d79965e5566d71e8b77d38f40b8075': <object object at 0x7f04ca8e21a0>}.test 0000: should have the isolation level of 100.0%"
p123
I57
sS"tests.unit.test_isolators.having The following current modules state: {'212c6aa145759aa3c77c1b82295190': <object object at 0x7f04ca8e2180>, '5561c4841197b914766932a84e3183': <object object at 0x7f04ca8e2140>}.test 0000: should call round with 100.0"
p124
I103
sS"tests.unit.test_isolators.having The following current modules state: {'cf74e8f45cd6562a0b5086f8223fd4': <testsuite.testdoubles.TestDouble object at 0x2626050>, '88d8c5344d568c24f11db3ee5c11d5': <object object at 0x7f04ca8e2110>}.test 0000: should call round with 50.0"
p125
I71
sS"tests.functional.test_isolators.having The following current modules state: {'b4371f002baae753a7cb0f5fc219a9': <object object at 0x7f04ca8e2160>, '2fb09198aa1d6b6895b97f1f66288c': <object object at 0x7f04ca8e2180>, 'd79965e5566d71e8b77d38f40b8075': <object object at 0x7f04ca8e21a0>}.test 0000: should have the isolation level of 100.0%"
p126
I39
sS"tests.unit.test_isolators.having The following current modules state: {'b3c9788a3023b696ccc8dbee7f23b8': <object object at 0x7f04ca8e2130>, '7a615c0eb3428887337ae94a1dd840': <testsuite.testdoubles.TestDouble object at 0x26260d0>, 'ba222e1f148931a457820271e4adab': <testsuite.testdoubles.TestDouble object at 0x2626090>, '5f78c009b0656a4a42ed33258d2f90': <object object at 0x7f04ca8e2120>}.test 0000: should call round with 50.0"
p127
I76
sS"tests.unit.test_isolators.having The following current modules state: {'7a0d37b5827f6b4921e7bb191b33c0': <object object at 0x7f04ca8e2170>, 'bd53804c1ff4c091c2b9481740e034': <object object at 0x7f04ca8e2160>, '5561c4841197b914766932a84e3183': <object object at 0x7f04ca8e2140>}.test 0000: should call round with 100.0"
p128
I98
sS"tests.functional.test_isolators.having The following current modules state: {'4dab9a0f381f932f36be3313110384': <object object at 0x7f04ca8e20f0>}.test 0000: should have the isolation level of 100.0%"
p129
I4
sS"tests.functional.test_isolators.having The following current modules state: {'e04e49d10cb75408309ef2ae408e49': <object object at 0x7f04ca8e2120>}.test 0000: should have the isolation level of 100.0%"
p130
I11
sS"tests.unit.test_isolators.having The following current modules state: {'55fc3850eb1b4372347156bbe64c75': <testsuite.testdoubles.TestDouble object at 0x2622f10>}.test 0000: should call round with 0.0"
p131
I63
ssS'ids'
p132
(dp133
I1
g39
sI2
g112
sI3
g69
sI4
g129
sI5
g102
sI6
g121
sI7
g54
sI8
g64
sI9
g27
sI10
g70
sI11
g130
sI12
g117
sI13
g4
sI14
g105
sI15
g40
sI16
g33
sI17
g15
sI18
g104
sI19
g23
sI20
g25
sI21
g111
sI22
g62
sI23
g56
sI24
g49
sI25
g31
sI26
g44
sI27
g6
sI28
g81
sI29
g14
sI30
g63
sI31
g75
sI32
g95
sI33
g109
sI34
g108
sI35
g10
sI36
g82
sI37
g48
sI38
g85
sI39
g126
sI40
g94
sI41
g114
sI42
g13
sI43
g5
sI44
g20
sI45
g73
sI46
g55
sI47
g107
sI48
g29
sI49
g37
sI50
g46
sI51
g9
sI52
g32
sI53
g79
sI54
g88
sI55
g50
sI56
g34
sI57
g123
sI58
g92
sI59
g43
sI60
g113
sI61
g60
sI62
g38
sI63
g131
sI64
g120
sI65
g90
sI66
g72
sI67
g103
sI68
g17
sI69
g91
sI70
g18
sI71
g125
sI72
g76
sI73
g45
sI74
g116
sI75
g119
sI76
g127
sI77
g26
sI78
g89
sI79
g122
sI80
g74
sI81
g97
sI82
g30
sI83
g47
sI84
g22
sI85
g98
sI86
g66
sI87
g8
sI88
g78
sI89
g35
sI90
g57
sI91
g65
sI92
g59
sI93
g3
sI94
g71
sI95
g16
sI96
g24
sI97
g58
sI98
g128
sI99
g67
sI100
g100
sI101
g93
sI102
g52
sI103
g124
sI104
g80
sI105
g86
sI106
g19
sI107
g110
sI108
g106
sI109
g12
sI110
g42
sI111
g68
sI112
g101
sI113
g99
sI114
g84
sI115
g41
sI116
g51
sI117
g21
sI118
g118
sI119
g115
sI120
g11
sI121
g83
sI122
g96
sI123
g28
sI124
g53
sI125
g7
sI126
g61
sI127
g87
sI128
g36
sI129
g77
ss.